target datalayout = "e-m:e-p270:32:32-p271:32:32-p272:64:64-i64:64-i128:128-f80:128-n8:16:32:64-S128"
target triple = "x86_64-pc-linux-gnu"

%struct.anon = type { i32, [0 x i8] }

@.str.1 = private unnamed_addr constant [10 x i8] c"genfile.c\00", align 1
@.str.18 = private unnamed_addr constant [36 x i8] c"requested length cannot be negative\00", align 1
@__func__.pg_read_file_common = private unnamed_addr constant [20 x i8] c"pg_read_file_common\00", align 1

; Function Attrs: nounwind uwtable
define internal ptr @read_text_file(ptr noundef %0, i64 noundef %1, i64 noundef %2, i1 noundef zeroext %3) #0 {
  %5 = alloca ptr, align 8
  %6 = alloca ptr, align 8
  %7 = alloca i64, align 8
  %8 = alloca i64, align 8
  %9 = alloca i8, align 1
  %10 = alloca ptr, align 8
  %11 = alloca i32, align 4
  store ptr %0, ptr %6, align 8
  store i64 %1, ptr %7, align 8
  store i64 %2, ptr %8, align 8
  %12 = zext i1 %3 to i8
  store i8 %12, ptr %9, align 1
  call void @llvm.lifetime.start.p0(i64 8, ptr %10) #9
  %13 = load ptr, ptr %6, align 8
  %14 = load i64, ptr %7, align 8
  %15 = load i64, ptr %8, align 8
  %16 = load i8, ptr %9, align 1, !range !4, !noundef !5
  %17 = trunc i8 %16 to i1
  %18 = call ptr @read_binary_file(ptr noundef %13, i64 noundef %14, i64 noundef %15, i1 noundef zeroext %17)
  store ptr %18, ptr %10, align 8
  %19 = load ptr, ptr %10, align 8
  %20 = icmp ne ptr %19, null
  br i1 %20, label %21, label %33

21:                                               ; preds = %4
  %22 = load ptr, ptr %10, align 8
  %23 = getelementptr inbounds nuw %struct.anon, ptr %22, i32 0, i32 1
  %24 = getelementptr inbounds [0 x i8], ptr %23, i64 0, i64 0
  %25 = load ptr, ptr %10, align 8
  %26 = getelementptr inbounds nuw %struct.anon, ptr %25, i32 0, i32 0
  %27 = load i32, ptr %26, align 4
  %28 = lshr i32 %27, 2
  %29 = and i32 %28, 1073741823
  %30 = sub i32 %29, 4
  %31 = call zeroext i1 @pg_verifymbstr(ptr noundef %24, i32 noundef %30, i1 noundef zeroext false)
  %32 = load ptr, ptr %10, align 8
  store ptr %32, ptr %5, align 8
  store i32 1, ptr %11, align 4
  br label %34

33:                                               ; preds = %4
  store ptr null, ptr %5, align 8
  store i32 1, ptr %11, align 4
  br label %34

34:                                               ; preds = %33, %21
  call void @llvm.lifetime.end.p0(i64 8, ptr %10) #9
  %35 = load ptr, ptr %5, align 8
  ret ptr %35
}

; Function Attrs: nounwind uwtable
define internal ptr @pg_read_file_common(ptr noundef %0, i64 noundef %1, i64 noundef %2, i1 noundef zeroext %3, i1 noundef zeroext %4) #0 {
  %6 = alloca ptr, align 8
  %7 = alloca i64, align 8
  %8 = alloca i64, align 8
  %9 = alloca i8, align 1
  %10 = alloca i8, align 1
  store ptr %0, ptr %6, align 8
  store i64 %1, ptr %7, align 8
  store i64 %2, ptr %8, align 8
  %11 = zext i1 %3 to i8
  store i8 %11, ptr %9, align 1
  %12 = zext i1 %4 to i8
  store i8 %12, ptr %10, align 1
  %13 = load i8, ptr %9, align 1, !range !4, !noundef !5
  %14 = trunc i8 %13 to i1
  br i1 %14, label %15, label %16

15:                                               ; preds = %5
  br label %31

16:                                               ; preds = %5
  %17 = load i64, ptr %8, align 8
  %18 = icmp slt i64 %17, 0
  br i1 %18, label %19, label %30

19:                                               ; preds = %16
  br label %20

20:                                               ; preds = %19
  br i1 true, label %21, label %23

21:                                               ; preds = %20
  %22 = call zeroext i1 @errstart_cold(i32 noundef 21, ptr noundef null) #10
  br i1 %22, label %25, label %28

23:                                               ; preds = %20
  %24 = call zeroext i1 @errstart(i32 noundef 21, ptr noundef null)
  br i1 %24, label %25, label %28

25:                                               ; preds = %23, %21
  %26 = call i32 @errcode(i32 noundef 50856066)
  %27 = call i32 (ptr, ...) @errmsg(ptr noundef @.str.18)
  call void @errfinish(ptr noundef @.str.1, i32 noundef 248, ptr noundef @__func__.pg_read_file_common)
  br label %28

28:                                               ; preds = %25, %23, %21
  unreachable

29:                                               ; No predecessors!
  br label %30

30:                                               ; preds = %29, %16
  br label %31

31:                                               ; preds = %30, %15
  %32 = load ptr, ptr %6, align 8
  %33 = call ptr @convert_and_check_filename(ptr noundef %32)
  %34 = load i64, ptr %7, align 8
  %35 = load i64, ptr %8, align 8
  %36 = load i8, ptr %10, align 1, !range !4, !noundef !5
  %37 = trunc i8 %36 to i1
  %38 = call ptr @read_text_file(ptr noundef %33, i64 noundef %34, i64 noundef %35, i1 noundef zeroext %37)
  ret ptr %38
}