; Function Attrs: nounwind uwtable
define internal fastcc ptr @pg_read_file_common(ptr noundef %0, i64 noundef %1, i64 noundef %2, i1 noundef zeroext %3, i1 noundef zeroext %4) unnamed_addr #0 {
  %6 = icmp sgt i64 %2, -1
  %or.cond.not = or i1 %6, %3
  br i1 %or.cond.not, label %11, label %7

7:                                                ; preds = %5
  %8 = tail call zeroext i1 @errstart_cold(i32 noundef 21, ptr noundef null) #10
  tail call void @llvm.assume(i1 %8)
  %9 = tail call i32 @errcode(i32 noundef 50856066) #9
  %10 = tail call i32 (ptr, ...) @errmsg(ptr noundef nonnull @.str.18) #9
  tail call void @errfinish(ptr noundef nonnull @.str.1, i32 noundef 248, ptr noundef nonnull @__func__.pg_read_file_common) #9
  unreachable

11:                                               ; preds = %5
  %12 = tail call fastcc ptr @convert_and_check_filename(ptr noundef %0)
  %13 = tail call fastcc ptr @read_binary_file(ptr noundef %12, i64 noundef %1, i64 noundef %2, i1 noundef zeroext %4)
  %.not.i = icmp eq ptr %13, null
  br i1 %.not.i, label %read_text_file.exit, label %14

14:                                               ; preds = %11
  %15 = getelementptr inbounds nuw i8, ptr %13, i64 4
  %16 = load i32, ptr %13, align 4
  %17 = lshr i32 %16, 2
  %18 = add nsw i32 %17, -4
  %19 = tail call zeroext i1 @pg_verifymbstr(ptr noundef nonnull %15, i32 noundef %18, i1 noundef zeroext false) #9
  br label %read_text_file.exit

read_text_file.exit:                              ; preds = %11, %14
  ret ptr %13
}